; Function Attrs: inlinehint mustprogress nounwind uwtable
define internal fastcc void @_ZN7testing8internal29PredicateFormatterFromMatcherINS0_15VariadicMatcherINS0_16AllOfMatcherImplEJNS0_14PointeeMatcherINS0_9EqMatcherIcEEEENS0_15ResultOfMatcherIZN4absl18debugging_internal12_GLOBAL__N_122DecodeRustPunycodeTest19PointsToTheNulAfterERKNSt7__cxx1112basic_stringIcSt11char_traitsIcESaIcEEEEUlPKcE_NS_18PolymorphicMatcherINS0_18StrEqualityMatcherISI_EEEEEEEEEED2Ev(ptr noundef nonnull readonly align 8 captures(address) dereferenceable(88) %0) unnamed_addr #10 align 2 personality ptr @__gxx_personality_v0 {
  %2 = getelementptr inbounds nuw i8, ptr %0, i64 40
  %3 = load ptr, ptr %2, align 8, !tbaa !16
  %4 = getelementptr inbounds nuw i8, ptr %0, i64 56
  %5 = icmp eq ptr %3, %4
  br i1 %5, label %_ZNKSt7__cxx1112basic_stringIcSt11char_traitsIcESaIcEE11_M_is_localEv.exit.thread.i.i.i.i.i.i.i, label %_ZNKSt7__cxx1112basic_stringIcSt11char_traitsIcESaIcEE11_M_is_localEv.exit.i.i.i.i.i.i.i

_ZNKSt7__cxx1112basic_stringIcSt11char_traitsIcESaIcEE11_M_is_localEv.exit.thread.i.i.i.i.i.i.i: ; preds = %1
  %6 = getelementptr inbounds nuw i8, ptr %0, i64 48
  %7 = load i64, ptr %6, align 8, !tbaa !10
  %8 = icmp ult i64 %7, 16
  tail call void @llvm.assume(i1 %8)
  br label %_ZN7testing18PolymorphicMatcherINS_8internal18StrEqualityMatcherINSt7__cxx1112basic_stringIcSt11char_traitsIcESaIcEEEEEED2Ev.exit.i.i.i

_ZNKSt7__cxx1112basic_stringIcSt11char_traitsIcESaIcEE11_M_is_localEv.exit.i.i.i.i.i.i.i: ; preds = %1
  %9 = load i64, ptr %4, align 8, !tbaa !13
  %10 = add i64 %9, 1
  tail call void @_ZdlPvm(ptr noundef %3, i64 noundef %10) #26
  br label %_ZN7testing18PolymorphicMatcherINS_8internal18StrEqualityMatcherINSt7__cxx1112basic_stringIcSt11char_traitsIcESaIcEEEEEED2Ev.exit.i.i.i

_ZN7testing18PolymorphicMatcherINS_8internal18StrEqualityMatcherINSt7__cxx1112basic_stringIcSt11char_traitsIcESaIcEEEEEED2Ev.exit.i.i.i: ; preds = %_ZNKSt7__cxx1112basic_stringIcSt11char_traitsIcESaIcEE11_M_is_localEv.exit.i.i.i.i.i.i.i, %_ZNKSt7__cxx1112basic_stringIcSt11char_traitsIcESaIcEE11_M_is_localEv.exit.thread.i.i.i.i.i.i.i
  %11 = load ptr, ptr %0, align 8, !tbaa !16
  %12 = getelementptr inbounds nuw i8, ptr %0, i64 16
  %13 = icmp eq ptr %11, %12
  br i1 %13, label %_ZNKSt7__cxx1112basic_stringIcSt11char_traitsIcESaIcEE11_M_is_localEv.exit.thread.i.i.i.i.i, label %_ZNKSt7__cxx1112basic_stringIcSt11char_traitsIcESaIcEE11_M_is_localEv.exit.i.i.i.i.i

_ZNKSt7__cxx1112basic_stringIcSt11char_traitsIcESaIcEE11_M_is_localEv.exit.thread.i.i.i.i.i: ; preds = %_ZN7testing18PolymorphicMatcherINS_8internal18StrEqualityMatcherINSt7__cxx1112basic_stringIcSt11char_traitsIcESaIcEEEEEED2Ev.exit.i.i.i
  %14 = getelementptr inbounds nuw i8, ptr %0, i64 8
  %15 = load i64, ptr %14, align 8, !tbaa !10
  %16 = icmp ult i64 %15, 16
  tail call void @llvm.assume(i1 %16)
  br label %_ZN7testing8internal15VariadicMatcherINS0_16AllOfMatcherImplEJNS0_14PointeeMatcherINS0_9EqMatcherIcEEEENS0_15ResultOfMatcherIZN4absl18debugging_internal12_GLOBAL__N_122DecodeRustPunycodeTest19PointsToTheNulAfterERKNSt7__cxx1112basic_stringIcSt11char_traitsIcESaIcEEEEUlPKcE_NS_18PolymorphicMatcherINS0_18StrEqualityMatcherISH_EEEEEEEED2Ev.exit

_ZNKSt7__cxx1112basic_stringIcSt11char_traitsIcESaIcEE11_M_is_localEv.exit.i.i.i.i.i: ; preds = %_ZN7testing18PolymorphicMatcherINS_8internal18StrEqualityMatcherINSt7__cxx1112basic_stringIcSt11char_traitsIcESaIcEEEEEED2Ev.exit.i.i.i
  %17 = load i64, ptr %12, align 8, !tbaa !13
  %18 = add i64 %17, 1
  tail call void @_ZdlPvm(ptr noundef %11, i64 noundef %18) #26
  br label %_ZN7testing8internal15VariadicMatcherINS0_16AllOfMatcherImplEJNS0_14PointeeMatcherINS0_9EqMatcherIcEEEENS0_15ResultOfMatcherIZN4absl18debugging_internal12_GLOBAL__N_122DecodeRustPunycodeTest19PointsToTheNulAfterERKNSt7__cxx1112basic_stringIcSt11char_traitsIcESaIcEEEEUlPKcE_NS_18PolymorphicMatcherINS0_18StrEqualityMatcherISH_EEEEEEEED2Ev.exit

_ZN7testing8internal15VariadicMatcherINS0_16AllOfMatcherImplEJNS0_14PointeeMatcherINS0_9EqMatcherIcEEEENS0_15ResultOfMatcherIZN4absl18debugging_internal12_GLOBAL__N_122DecodeRustPunycodeTest19PointsToTheNulAfterERKNSt7__cxx1112basic_stringIcSt11char_traitsIcESaIcEEEEUlPKcE_NS_18PolymorphicMatcherINS0_18StrEqualityMatcherISH_EEEEEEEED2Ev.exit: ; preds = %_ZNKSt7__cxx1112basic_stringIcSt11char_traitsIcESaIcEE11_M_is_localEv.exit.thread.i.i.i.i.i, %_ZNKSt7__cxx1112basic_stringIcSt11char_traitsIcESaIcEE11_M_is_localEv.exit.i.i.i.i.i
  ret void
}